; ModuleID = '21/958.c'
source_filename = "21/958.c"
target datalayout = "e-m:e-p270:32:32-p271:32:32-p272:64:64-i64:64-f80:128-n8:16:32:64-S128"
target triple = "x86_64-pc-linux-gnu"

@.str = private unnamed_addr constant [3 x i8] c"%d\00", align 1
@.str.1 = private unnamed_addr constant [4 x i8] c",%d\00", align 1

; Function Attrs: noinline nounwind uwtable
define dso_local i32 @main() #0 {
  %1 = alloca i32, align 4
  %2 = alloca i32, align 4
  %3 = alloca [100 x i32], align 16
  %4 = alloca i32, align 4
  %5 = alloca i32, align 4
  %6 = alloca i32, align 4
  %7 = alloca float, align 4
  %8 = alloca float, align 4
  store i32 0, i32* %1, align 4
  store float 0.000000e+00, float* %8, align 4
  %9 = call i32 (i8*, ...) @__isoc99_scanf(i8* getelementptr inbounds ([3 x i8], [3 x i8]* @.str, i64 0, i64 0), i32* %2)
  store i32 0, i32* %5, align 4
  br label %10

10:                                               ; preds = %26, %0
  %11 = load i32, i32* %5, align 4
  %12 = load i32, i32* %2, align 4
  %13 = icmp slt i32 %11, %12
  br i1 %13, label %14, label %29

14:                                               ; preds = %10
  %15 = load i32, i32* %5, align 4
  %16 = sext i32 %15 to i64
  %17 = getelementptr inbounds [100 x i32], [100 x i32]* %3, i64 0, i64 %16
  %18 = call i32 (i8*, ...) @__isoc99_scanf(i8* getelementptr inbounds ([3 x i8], [3 x i8]* @.str, i64 0, i64 0), i32* %17)
  %19 = load i32, i32* %5, align 4
  %20 = sext i32 %19 to i64
  %21 = getelementptr inbounds [100 x i32], [100 x i32]* %3, i64 0, i64 %20
  %22 = load i32, i32* %21, align 4
  %23 = sitofp i32 %22 to float
  %24 = load float, float* %8, align 4
  %25 = fadd float %24, %23
  store float %25, float* %8, align 4
  br label %26

26:                                               ; preds = %14
  %27 = load i32, i32* %5, align 4
  %28 = add nsw i32 %27, 1
  store i32 %28, i32* %5, align 4
  br label %10

29:                                               ; preds = %10
  %30 = load float, float* %8, align 4
  %31 = load i32, i32* %2, align 4
  %32 = sitofp i32 %31 to float
  %33 = fdiv float %30, %32
  store float %33, float* %7, align 4
  store i32 0, i32* %5, align 4
  br label %34

34:                                               ; preds = %86, %29
  %35 = load i32, i32* %5, align 4
  %36 = load i32, i32* %2, align 4
  %37 = icmp slt i32 %35, %36
  br i1 %37, label %38, label %89

38:                                               ; preds = %34
  %39 = load i32, i32* %5, align 4
  %40 = add nsw i32 %39, 1
  store i32 %40, i32* %6, align 4
  br label %41

41:                                               ; preds = %82, %38
  %42 = load i32, i32* %6, align 4
  %43 = load i32, i32* %2, align 4
  %44 = icmp slt i32 %42, %43
  br i1 %44, label %45, label %85

45:                                               ; preds = %41
  %46 = load i32, i32* %5, align 4
  %47 = sext i32 %46 to i64
  %48 = getelementptr inbounds [100 x i32], [100 x i32]* %3, i64 0, i64 %47
  %49 = load i32, i32* %48, align 4
  %50 = sitofp i32 %49 to float
  %51 = load float, float* %7, align 4
  %52 = fsub float %50, %51
  %53 = fpext float %52 to double
  %54 = call double @llvm.fabs.f64(double %53)
  %55 = load i32, i32* %6, align 4
  %56 = sext i32 %55 to i64
  %57 = getelementptr inbounds [100 x i32], [100 x i32]* %3, i64 0, i64 %56
  %58 = load i32, i32* %57, align 4
  %59 = sitofp i32 %58 to float
  %60 = load float, float* %7, align 4
  %61 = fsub float %59, %60
  %62 = fpext float %61 to double
  %63 = call double @llvm.fabs.f64(double %62)
  %64 = fcmp olt double %54, %63
  br i1 %64, label %65, label %81

65:                                               ; preds = %45
  %66 = load i32, i32* %5, align 4
  %67 = sext i32 %66 to i64
  %68 = getelementptr inbounds [100 x i32], [100 x i32]* %3, i64 0, i64 %67
  %69 = load i32, i32* %68, align 4
  store i32 %69, i32* %4, align 4
  %70 = load i32, i32* %6, align 4
  %71 = sext i32 %70 to i64
  %72 = getelementptr inbounds [100 x i32], [100 x i32]* %3, i64 0, i64 %71
  %73 = load i32, i32* %72, align 4
  %74 = load i32, i32* %5, align 4
  %75 = sext i32 %74 to i64
  %76 = getelementptr inbounds [100 x i32], [100 x i32]* %3, i64 0, i64 %75
  store i32 %73, i32* %76, align 4
  %77 = load i32, i32* %4, align 4
  %78 = load i32, i32* %6, align 4
  %79 = sext i32 %78 to i64
  %80 = getelementptr inbounds [100 x i32], [100 x i32]* %3, i64 0, i64 %79
  store i32 %77, i32* %80, align 4
  br label %81

81:                                               ; preds = %65, %45
  br label %82

82:                                               ; preds = %81
  %83 = load i32, i32* %6, align 4
  %84 = add nsw i32 %83, 1
  store i32 %84, i32* %6, align 4
  br label %41

85:                                               ; preds = %41
  br label %86

86:                                               ; preds = %85
  %87 = load i32, i32* %5, align 4
  %88 = add nsw i32 %87, 1
  store i32 %88, i32* %5, align 4
  br label %34

89:                                               ; preds = %34
  %90 = getelementptr inbounds [100 x i32], [100 x i32]* %3, i64 0, i64 0
  %91 = load i32, i32* %90, align 16
  %92 = call i32 (i8*, ...) @printf(i8* getelementptr inbounds ([3 x i8], [3 x i8]* @.str, i64 0, i64 0), i32 %91)
  store i32 1, i32* %5, align 4
  br label %93

93:                                               ; preds = %111, %89
  %94 = load i32, i32* %5, align 4
  %95 = sext i32 %94 to i64
  %96 = getelementptr inbounds [100 x i32], [100 x i32]* %3, i64 0, i64 %95
  %97 = load i32, i32* %96, align 4
  %98 = sitofp i32 %97 to float
  %99 = load float, float* %7, align 4
  %100 = fsub float %98, %99
  %101 = fpext float %100 to double
  %102 = call double @llvm.fabs.f64(double %101)
  %103 = getelementptr inbounds [100 x i32], [100 x i32]* %3, i64 0, i64 0
  %104 = load i32, i32* %103, align 16
  %105 = sitofp i32 %104 to float
  %106 = load float, float* %7, align 4
  %107 = fsub float %105, %106
  %108 = fpext float %107 to double
  %109 = call double @llvm.fabs.f64(double %108)
  %110 = fcmp oeq double %102, %109
  br i1 %110, label %111, label %119

111:                                              ; preds = %93
  %112 = load i32, i32* %5, align 4
  %113 = sext i32 %112 to i64
  %114 = getelementptr inbounds [100 x i32], [100 x i32]* %3, i64 0, i64 %113
  %115 = load i32, i32* %114, align 4
  %116 = call i32 (i8*, ...) @printf(i8* getelementptr inbounds ([4 x i8], [4 x i8]* @.str.1, i64 0, i64 0), i32 %115)
  %117 = load i32, i32* %5, align 4
  %118 = add nsw i32 %117, 1
  store i32 %118, i32* %5, align 4
  br label %93

119:                                              ; preds = %93
  ret i32 0
}

declare dso_local i32 @__isoc99_scanf(i8*, ...) #1

; Function Attrs: nounwind readnone speculatable willreturn
declare double @llvm.fabs.f64(double) #2

declare dso_local i32 @printf(i8*, ...) #1


!llvm.module.flags = !{!0}
!llvm.ident = !{!1}

!0 = !{i32 1, !"wchar_size", i32 4}
!1 = !{!"clang version 10.0.0-4ubuntu1 "}
